target datalayout = "e-m:e-p270:32:32-p271:32:32-p272:64:64-i64:64-i128:128-f80:128-n8:16:32:64-S128"
target triple = "x86_64-pc-linux-gnu"

%struct.strbuf = type { i64, i64, ptr }
%struct.strvec = type { ptr, i64, i64 }
%struct.wt_status = type { ptr, i32, ptr, ptr, %struct.pathspec, i32, i32, i32, i32, i32, i32, i32, i32, i32, i32, i32, ptr, [9 x [75 x i8]], i32, i32, i32, i32, i32, i32, i32, i32, i32, i32, i32, i8, %struct.wt_status_state, %struct.object_id, i32, i32, ptr, ptr, ptr, %struct.string_list, %struct.string_list, %struct.string_list, i32 }
%struct.pathspec = type { i32, i8, i32, i32, ptr }
%struct.wt_status_state = type { i32, i32, i32, i32, i32, i32, i32, i32, i32, i32, ptr, ptr, ptr, ptr, %struct.object_id, %struct.object_id, %struct.object_id }
%struct.object_id = type { [32 x i8], i32 }
%struct.string_list = type { ptr, i64, i64, i8, ptr }
%struct.child_process = type { %struct.strvec, %struct.strvec, i32, i32, i64, ptr, ptr, i32, i32, i32, ptr, i16, ptr }

@.str.1 = private unnamed_addr constant [5 x i8] c"HEAD\00", align 1
@comment_line_str = external global ptr, align 8
@.str.29 = private unnamed_addr constant [1 x i8] zeroinitializer, align 1
@git_gettext_enabled = external global i32, align 4
@.str.58 = private unnamed_addr constant [3 x i8] c"%d\00", align 1
@__const.wt_longstatus_print_submodule_summary.cmd_stdout = private unnamed_addr constant %struct.strbuf { i64 0, i64 0, ptr @strbuf_slopbuf }, align 8
@__const.wt_longstatus_print_submodule_summary.summary = private unnamed_addr constant %struct.strbuf { i64 0, i64 0, ptr @strbuf_slopbuf }, align 8
@.str.225 = private unnamed_addr constant [18 x i8] c"GIT_INDEX_FILE=%s\00", align 1
@.str.226 = private unnamed_addr constant [10 x i8] c"submodule\00", align 1
@.str.227 = private unnamed_addr constant [8 x i8] c"summary\00", align 1
@.str.228 = private unnamed_addr constant [8 x i8] c"--files\00", align 1
@.str.229 = private unnamed_addr constant [9 x i8] c"--cached\00", align 1
@.str.230 = private unnamed_addr constant [13 x i8] c"--for-status\00", align 1
@.str.231 = private unnamed_addr constant [16 x i8] c"--summary-limit\00", align 1
@.str.232 = private unnamed_addr constant [6 x i8] c"HEAD^\00", align 1
@.str.233 = private unnamed_addr constant [36 x i8] c"Submodules changed but not updated:\00", align 1
@.str.234 = private unnamed_addr constant [35 x i8] c"Submodule changes to be committed:\00", align 1
@.str.235 = private unnamed_addr constant [3 x i8] c"\0A\0A\00", align 1

; Function Attrs: inlinehint nounwind uwtable
define internal void @strbuf_addstr(ptr noundef %0, ptr noundef %1) #8 {
  %3 = alloca ptr, align 8
  %4 = alloca ptr, align 8
  store ptr %0, ptr %3, align 8, !tbaa !186
  store ptr %1, ptr %4, align 8, !tbaa !9
  %5 = load ptr, ptr %3, align 8, !tbaa !186
  %6 = load ptr, ptr %4, align 8, !tbaa !9
  %7 = load ptr, ptr %4, align 8, !tbaa !9
  %8 = call i64 @strlen(ptr noundef %7) #13
  call void @strbuf_add(ptr noundef %5, ptr noundef %6, i64 noundef %8)
  ret void
}

; Function Attrs: inlinehint nounwind uwtable
define internal ptr @_(ptr noundef %0) #8 {
  %2 = alloca ptr, align 8
  %3 = alloca ptr, align 8
  store ptr %0, ptr %3, align 8, !tbaa !9
  %4 = load ptr, ptr %3, align 8, !tbaa !9
  %5 = load i8, ptr %4, align 1, !tbaa !30
  %6 = icmp ne i8 %5, 0
  br i1 %6, label %8, label %7

7:                                                ; preds = %1
  store ptr @.str.29, ptr %2, align 8
  br label %16

8:                                                ; preds = %1
  %9 = load i32, ptr @git_gettext_enabled, align 4, !tbaa !11
  %10 = icmp ne i32 %9, 0
  br i1 %10, label %13, label %11

11:                                               ; preds = %8
  %12 = load ptr, ptr %3, align 8, !tbaa !9
  store ptr %12, ptr %2, align 8
  br label %16

13:                                               ; preds = %8
  %14 = load ptr, ptr %3, align 8, !tbaa !9
  %15 = call ptr @dcgettext(ptr noundef null, ptr noundef %14, i32 noundef 5) #12
  store ptr %15, ptr %2, align 8
  br label %16

16:                                               ; preds = %13, %11, %7
  %17 = load ptr, ptr %2, align 8
  ret ptr %17
}

; Function Attrs: inlinehint nounwind uwtable
define internal i32 @capture_command(ptr noundef %0, ptr noundef %1, i64 noundef %2) #8 {
  %4 = alloca ptr, align 8
  %5 = alloca ptr, align 8
  %6 = alloca i64, align 8
  store ptr %0, ptr %4, align 8, !tbaa !323
  store ptr %1, ptr %5, align 8, !tbaa !186
  store i64 %2, ptr %6, align 8, !tbaa !153
  %7 = load ptr, ptr %4, align 8, !tbaa !323
  %8 = load ptr, ptr %5, align 8, !tbaa !186
  %9 = load i64, ptr %6, align 8, !tbaa !153
  %10 = call i32 @pipe_command(ptr noundef %7, ptr noundef null, i64 noundef 0, ptr noundef %8, i64 noundef %9, ptr noundef null, i64 noundef 0)
  ret i32 %10
}

; Function Attrs: nounwind uwtable
define internal void @wt_longstatus_print_submodule_summary(ptr noundef %0, i32 noundef %1) #0 {
  %3 = alloca ptr, align 8
  %4 = alloca i32, align 4
  %5 = alloca %struct.child_process, align 8
  %6 = alloca %struct.strbuf, align 8
  %7 = alloca %struct.strbuf, align 8
  %8 = alloca ptr, align 8
  %9 = alloca i64, align 8
  store ptr %0, ptr %3, align 8, !tbaa !4
  store i32 %1, ptr %4, align 4, !tbaa !11
  call void @llvm.lifetime.start.p0(i64 120, ptr %5) #12
  call void @llvm.memcpy.p0.p0.i64(ptr align 8 %5, ptr align 8 @__const.wt_longstatus_print_submodule_summary.sm_summary, i64 120, i1 false)
  call void @llvm.lifetime.start.p0(i64 24, ptr %6) #12
  call void @llvm.memcpy.p0.p0.i64(ptr align 8 %6, ptr align 8 @__const.wt_longstatus_print_submodule_summary.cmd_stdout, i64 24, i1 false)
  call void @llvm.lifetime.start.p0(i64 24, ptr %7) #12
  call void @llvm.memcpy.p0.p0.i64(ptr align 8 %7, ptr align 8 @__const.wt_longstatus_print_submodule_summary.summary, i64 24, i1 false)
  call void @llvm.lifetime.start.p0(i64 8, ptr %8) #12
  %10 = getelementptr inbounds nuw %struct.child_process, ptr %5, i32 0, i32 1
  %11 = load ptr, ptr %3, align 8, !tbaa !4
  %12 = getelementptr inbounds nuw %struct.wt_status, ptr %11, i32 0, i32 34
  %13 = load ptr, ptr %12, align 8, !tbaa !41
  %14 = call ptr (ptr, ptr, ...) @strvec_pushf(ptr noundef %10, ptr noundef @.str.225, ptr noundef %13)
  %15 = getelementptr inbounds nuw %struct.child_process, ptr %5, i32 0, i32 0
  %16 = call ptr @strvec_push(ptr noundef %15, ptr noundef @.str.226)
  %17 = getelementptr inbounds nuw %struct.child_process, ptr %5, i32 0, i32 0
  %18 = call ptr @strvec_push(ptr noundef %17, ptr noundef @.str.227)
  %19 = getelementptr inbounds nuw %struct.child_process, ptr %5, i32 0, i32 0
  %20 = load i32, ptr %4, align 4, !tbaa !11
  %21 = icmp ne i32 %20, 0
  %22 = select i1 %21, ptr @.str.228, ptr @.str.229
  %23 = call ptr @strvec_push(ptr noundef %19, ptr noundef %22)
  %24 = getelementptr inbounds nuw %struct.child_process, ptr %5, i32 0, i32 0
  %25 = call ptr @strvec_push(ptr noundef %24, ptr noundef @.str.230)
  %26 = getelementptr inbounds nuw %struct.child_process, ptr %5, i32 0, i32 0
  %27 = call ptr @strvec_push(ptr noundef %26, ptr noundef @.str.231)
  %28 = getelementptr inbounds nuw %struct.child_process, ptr %5, i32 0, i32 0
  %29 = load ptr, ptr %3, align 8, !tbaa !4
  %30 = getelementptr inbounds nuw %struct.wt_status, ptr %29, i32 0, i32 13
  %31 = load i32, ptr %30, align 8, !tbaa !231
  %32 = call ptr (ptr, ptr, ...) @strvec_pushf(ptr noundef %28, ptr noundef @.str.58, i32 noundef %31)
  %33 = load i32, ptr %4, align 4, !tbaa !11
  %34 = icmp ne i32 %33, 0
  br i1 %34, label %43, label %35

35:                                               ; preds = %2
  %36 = getelementptr inbounds nuw %struct.child_process, ptr %5, i32 0, i32 0
  %37 = load ptr, ptr %3, align 8, !tbaa !4
  %38 = getelementptr inbounds nuw %struct.wt_status, ptr %37, i32 0, i32 6
  %39 = load i32, ptr %38, align 4, !tbaa !234
  %40 = icmp ne i32 %39, 0
  %41 = select i1 %40, ptr @.str.232, ptr @.str.1
  %42 = call ptr @strvec_push(ptr noundef %36, ptr noundef %41)
  br label %43

43:                                               ; preds = %35, %2
  %44 = getelementptr inbounds nuw %struct.child_process, ptr %5, i32 0, i32 11
  %45 = load i16, ptr %44, align 8
  %46 = and i16 %45, -9
  %47 = or i16 %46, 8
  store i16 %47, ptr %44, align 8
  %48 = getelementptr inbounds nuw %struct.child_process, ptr %5, i32 0, i32 11
  %49 = load i16, ptr %48, align 8
  %50 = and i16 %49, -2
  %51 = or i16 %50, 1
  store i16 %51, ptr %48, align 8
  %52 = call i32 @capture_command(ptr noundef %5, ptr noundef %6, i64 noundef 1024)
  %53 = getelementptr inbounds nuw %struct.strbuf, ptr %6, i32 0, i32 1
  %54 = load i64, ptr %53, align 8, !tbaa !15
  %55 = icmp ne i64 %54, 0
  br i1 %55, label %56, label %64

56:                                               ; preds = %43
  %57 = load i32, ptr %4, align 4, !tbaa !11
  %58 = icmp ne i32 %57, 0
  br i1 %58, label %59, label %61

59:                                               ; preds = %56
  %60 = call ptr @_(ptr noundef @.str.233)
  call void @strbuf_addstr(ptr noundef %7, ptr noundef %60)
  br label %63

61:                                               ; preds = %56
  %62 = call ptr @_(ptr noundef @.str.234)
  call void @strbuf_addstr(ptr noundef %7, ptr noundef %62)
  br label %63

63:                                               ; preds = %61, %59
  call void @strbuf_addstr(ptr noundef %7, ptr noundef @.str.235)
  br label %64

64:                                               ; preds = %63, %43
  call void @strbuf_addbuf(ptr noundef %7, ptr noundef %6)
  call void @strbuf_release(ptr noundef %6)
  %65 = load ptr, ptr %3, align 8, !tbaa !4
  %66 = getelementptr inbounds nuw %struct.wt_status, ptr %65, i32 0, i32 11
  %67 = load i32, ptr %66, align 8, !tbaa !18
  %68 = icmp ne i32 %67, 0
  br i1 %68, label %69, label %75

69:                                               ; preds = %64
  call void @llvm.lifetime.start.p0(i64 8, ptr %9) #12
  %70 = call ptr @strbuf_detach(ptr noundef %7, ptr noundef %9)
  store ptr %70, ptr %8, align 8, !tbaa !9
  %71 = load ptr, ptr %8, align 8, !tbaa !9
  %72 = load i64, ptr %9, align 8, !tbaa !153
  %73 = load ptr, ptr @comment_line_str, align 8, !tbaa !9
  call void @strbuf_add_commented_lines(ptr noundef %7, ptr noundef %71, i64 noundef %72, ptr noundef %73)
  %74 = load ptr, ptr %8, align 8, !tbaa !9
  call void @free(ptr noundef %74) #12
  call void @llvm.lifetime.end.p0(i64 8, ptr %9) #12
  br label %75

75:                                               ; preds = %69, %64
  %76 = getelementptr inbounds nuw %struct.strbuf, ptr %7, i32 0, i32 2
  %77 = load ptr, ptr %76, align 8, !tbaa !29
  %78 = load ptr, ptr %3, align 8, !tbaa !4
  %79 = getelementptr inbounds nuw %struct.wt_status, ptr %78, i32 0, i32 35
  %80 = load ptr, ptr %79, align 8, !tbaa !28
  %81 = call i32 @fputs(ptr noundef %77, ptr noundef %80)
  call void @strbuf_release(ptr noundef %7)
  call void @llvm.lifetime.end.p0(i64 8, ptr %8) #12
  call void @llvm.lifetime.end.p0(i64 24, ptr %7) #12
  call void @llvm.lifetime.end.p0(i64 24, ptr %6) #12
  call void @llvm.lifetime.end.p0(i64 120, ptr %5) #12
  ret void
}