; Function Attrs: nounwind uwtable
define internal fastcc void @wt_longstatus_print_submodule_summary(ptr noundef readonly captures(none) %0, i32 noundef range(i32 0, 2) %1) unnamed_addr #0 {
  %3 = alloca %struct.child_process, align 8
  %4 = alloca %struct.strbuf, align 8
  %5 = alloca %struct.strbuf, align 8
  %6 = alloca i64, align 8
  call void @llvm.lifetime.start.p0(i64 120, ptr nonnull %3) #20
  call void @llvm.memcpy.p0.p0.i64(ptr noundef nonnull align 8 dereferenceable(120) %3, ptr noundef nonnull align 8 dereferenceable(120) @__const.wt_longstatus_print_submodule_summary.sm_summary, i64 120, i1 false)
  call void @llvm.lifetime.start.p0(i64 24, ptr nonnull %4) #20
  call void @llvm.memcpy.p0.p0.i64(ptr noundef nonnull align 8 dereferenceable(24) %4, ptr noundef nonnull align 8 dereferenceable(24) @__const.wt_longstatus_print_other.buf, i64 24, i1 false)
  call void @llvm.lifetime.start.p0(i64 24, ptr nonnull %5) #20
  call void @llvm.memcpy.p0.p0.i64(ptr noundef nonnull align 8 dereferenceable(24) %5, ptr noundef nonnull align 8 dereferenceable(24) @__const.wt_longstatus_print_other.buf, i64 24, i1 false)
  %7 = getelementptr inbounds nuw i8, ptr %3, i64 24
  %8 = getelementptr inbounds nuw i8, ptr %0, i64 1072
  %9 = load ptr, ptr %8, align 8, !tbaa !37
  %10 = call ptr (ptr, ptr, ...) @strvec_pushf(ptr noundef nonnull %7, ptr noundef nonnull @.str.225, ptr noundef %9) #20
  %11 = call ptr @strvec_push(ptr noundef nonnull %3, ptr noundef nonnull @.str.226) #20
  %12 = call ptr @strvec_push(ptr noundef nonnull %3, ptr noundef nonnull @.str.227) #20
  %.not = icmp eq i32 %1, 0
  %13 = select i1 %.not, ptr @.str.229, ptr @.str.228
  %14 = call ptr @strvec_push(ptr noundef nonnull %3, ptr noundef nonnull %13) #20
  %15 = call ptr @strvec_push(ptr noundef nonnull %3, ptr noundef nonnull @.str.230) #20
  %16 = call ptr @strvec_push(ptr noundef nonnull %3, ptr noundef nonnull @.str.231) #20
  %17 = getelementptr inbounds nuw i8, ptr %0, i64 88
  %18 = load i32, ptr %17, align 8, !tbaa !234
  %19 = call ptr (ptr, ptr, ...) @strvec_pushf(ptr noundef nonnull %3, ptr noundef nonnull @.str.58, i32 noundef %18) #20
  br i1 %.not, label %20, label %25

20:                                               ; preds = %2
  %21 = getelementptr inbounds nuw i8, ptr %0, i64 60
  %22 = load i32, ptr %21, align 4, !tbaa !222
  %.not9 = icmp eq i32 %22, 0
  %23 = select i1 %.not9, ptr @.str.1, ptr @.str.232
  %24 = call ptr @strvec_push(ptr noundef nonnull %3, ptr noundef nonnull %23) #20
  br label %25

25:                                               ; preds = %20, %2
  %26 = getelementptr inbounds nuw i8, ptr %3, i64 104
  %27 = load i16, ptr %26, align 8
  %28 = or i16 %27, 9
  store i16 %28, ptr %26, align 8
  %29 = call i32 @pipe_command(ptr noundef nonnull %3, ptr noundef null, i64 noundef 0, ptr noundef nonnull %4, i64 noundef 1024, ptr noundef null, i64 noundef 0) #20
  %30 = getelementptr inbounds nuw i8, ptr %4, i64 8
  %31 = load i64, ptr %30, align 8, !tbaa !4
  %.not10 = icmp eq i64 %31, 0
  br i1 %.not10, label %36, label %32

32:                                               ; preds = %25
  %33 = load i32, ptr @git_gettext_enabled, align 4, !tbaa !128
  %.not4.i12 = icmp eq i32 %33, 0
  %.str.234..str.233 = select i1 %.not, ptr @.str.234, ptr @.str.233
  br i1 %.not4.i12, label %_.exit, label %_.exit.sink.split

_.exit.sink.split:                                ; preds = %32
  %34 = call ptr @dcgettext(ptr noundef null, ptr noundef nonnull %.str.234..str.233, i32 noundef 5) #20
  br label %_.exit

_.exit:                                           ; preds = %32, %_.exit.sink.split
  %.0.i13.sink15 = phi ptr [ %34, %_.exit.sink.split ], [ %.str.234..str.233, %32 ]
  %35 = call i64 @strlen(ptr noundef nonnull dereferenceable(1) %.0.i13.sink15) #21
  call void @strbuf_add(ptr noundef nonnull %5, ptr noundef nonnull %.0.i13.sink15, i64 noundef %35) #20
  call void @strbuf_add(ptr noundef nonnull %5, ptr noundef nonnull @.str.235, i64 noundef 2) #20
  br label %36

36:                                               ; preds = %_.exit, %25
  call void @strbuf_addbuf(ptr noundef nonnull %5, ptr noundef nonnull %4) #20
  call void @strbuf_release(ptr noundef nonnull %4) #20
  %37 = getelementptr inbounds nuw i8, ptr %0, i64 80
  %38 = load i32, ptr %37, align 8, !tbaa !11
  %.not11 = icmp eq i32 %38, 0
  br i1 %.not11, label %43, label %39

39:                                               ; preds = %36
  call void @llvm.lifetime.start.p0(i64 8, ptr nonnull %6) #20
  %40 = call ptr @strbuf_detach(ptr noundef nonnull %5, ptr noundef nonnull %6) #20
  %41 = load i64, ptr %6, align 8, !tbaa !267
  %42 = load ptr, ptr @comment_line_str, align 8, !tbaa !22
  call void @strbuf_add_commented_lines(ptr noundef nonnull %5, ptr noundef %40, i64 noundef %41, ptr noundef %42) #20
  call void @free(ptr noundef %40) #20
  call void @llvm.lifetime.end.p0(i64 8, ptr nonnull %6) #20
  br label %43

43:                                               ; preds = %39, %36
  %44 = getelementptr inbounds nuw i8, ptr %5, i64 16
  %45 = load ptr, ptr %44, align 8, !tbaa !25
  %46 = getelementptr inbounds nuw i8, ptr %0, i64 1080
  %47 = load ptr, ptr %46, align 8, !tbaa !23
  %48 = call i32 @fputs(ptr noundef %45, ptr noundef %47)
  call void @strbuf_release(ptr noundef nonnull %5) #20
  call void @llvm.lifetime.end.p0(i64 24, ptr nonnull %5) #20
  call void @llvm.lifetime.end.p0(i64 24, ptr nonnull %4) #20
  call void @llvm.lifetime.end.p0(i64 120, ptr nonnull %3) #20
  ret void
}